Certificate:
    Data:
        Version: 3 (0x2)
        Serial Number:
            7e:c5:50:6d:91:6d:7d:93:90:a6:0c:da:b0:e1:24:e0:6c:34:9c:24
        Signature Algorithm: sha256WithRSAEncryption
        Issuer: C = RU, ST = Moscow, L = Moscow, O = IT-Workshop, OU = Development, CN = st.it-workshop.ru
        Validity
            Not Before: Nov  3 12:57:47 2025 GMT
            Not After : Nov  1 12:57:47 2035 GMT
        Subject: C = RU, ST = Moscow, L = Moscow, O = IT-Workshop, OU = Development, CN = st.it-workshop.ru
        Subject Public Key Info:
            Public Key Algorithm: rsaEncryption
                Public-Key: (2048 bit)
                Modulus:
                    00:ae:dc:65:3e:3e:0d:d5:b8:3d:53:f1:3e:ef:32:
                    0c:e9:df:f8:8e:90:b6:5a:7b:29:4e:24:6a:53:be:
                    d0:88:5d:f7:fb:cd:f5:cd:0b:3a:14:ce:3c:ed:fa:
                    81:db:11:63:de:13:c4:60:71:d2:36:e8:2f:1e:98:
                    bf:9e:a3:6e:71:ca:5e:5e:a7:d4:a8:fc:c5:7c:d7:
                    42:50:37:7d:fb:7c:70:73:01:42:1d:1a:39:a8:69:
                    c7:4a:9f:43:52:f4:66:bb:97:44:0e:22:f9:6f:70:
                    4f:4b:e7:b1:a4:11:d6:13:b9:c1:7c:71:1e:83:fa:
                    a9:6a:82:6a:2f:e9:05:2f:0c:04:c9:94:93:b2:85:
                    ec:fc:ea:80:e0:5d:bb:da:55:8d:1e:88:36:57:d1:
                    07:d2:9e:a3:6a:76:b6:70:96:00:4e:28:8f:83:79:
                    c5:4f:02:02:18:9a:dd:13:90:90:84:f6:ad:ec:ed:
                    53:2d:e5:a4:8b:2a:8d:44:3f:df:f1:77:01:df:dc:
                    22:04:89:6b:e6:d9:49:df:57:2d:94:af:31:ea:a0:
                    6c:dc:78:85:92:aa:db:d8:31:69:a1:4e:c6:2d:66:
                    bc:24:a5:89:45:24:97:e7:72:af:1b:93:a9:be:36:
                    a9:19:06:5b:e0:40:a0:a1:a5:ee:e5:16:23:f1:e9:
                    09:c9
                Exponent: 65537 (0x10001)
        X509v3 extensions:
            X509v3 Key Usage: critical
                Digital Signature, Key Encipherment
            X509v3 Extended Key Usage: 
                TLS Web Server Authentication
            X509v3 Subject Alternative Name: 
                DNS:st.it-workshop.ru
IP.1 = 109.172.115.204

            X509v3 Subject Key Identifier: 
                BE:53:D5:9A:45:62:00:E8:E1:E9:86:EF:E8:B2:5F:A3:8A:17:09:89
    Signature Algorithm: sha256WithRSAEncryption
    Signature Value:
        37:6e:68:79:24:86:bd:b4:3e:c4:11:46:d3:d0:75:9d:df:b3:
        c2:52:bd:67:b4:02:13:81:6d:69:c2:6f:0f:77:27:3b:47:4f:
        bb:c2:9d:a1:17:70:32:cb:ef:fb:67:f3:94:a2:eb:0b:f7:4e:
        d7:f3:bb:84:a0:99:9b:dc:03:2c:8b:43:15:06:99:15:6e:28:
        9b:c1:a8:ad:d7:48:37:aa:91:d3:97:71:47:35:11:d9:ff:31:
        86:60:1b:15:7d:de:6a:1f:5a:09:f6:4f:cb:3f:86:f7:bc:34:
        7e:8d:27:e8:5a:d3:d5:20:d6:25:55:3f:6c:e2:92:f5:46:f5:
        8b:02:40:de:34:c8:90:aa:56:8e:19:6b:3d:47:cb:05:b2:a8:
        82:2e:63:e3:a2:b5:13:af:35:80:61:76:23:b7:bd:20:fe:63:
        f0:22:6e:34:79:87:4e:e0:15:2e:97:28:58:89:43:14:5f:48:
        b6:ce:94:5e:66:54:c5:1c:37:41:16:b5:e7:54:e1:be:82:77:
        27:10:cf:f9:6c:f3:2e:bf:c4:95:c4:f1:92:ae:e0:5e:e7:69:
        7f:4f:90:18:12:d9:e3:d1:02:28:1b:83:3d:6f:9e:c7:ff:96:
        b9:ba:2f:f7:73:c5:c6:4c:54:ea:87:a1:5b:ea:5c:ee:f4:05:
        55:29:b8:ed
-----BEGIN CERTIFICATE-----
MIID+DCCAuCgAwIBAgIUfsVQbZFtfZOQpgzasOEk4Gw0nCQwDQYJKoZIhvcNAQEL
BQAwdzELMAkGA1UEBhMCUlUxDzANBgNVBAgMBk1vc2NvdzEPMA0GA1UEBwwGTW9z
Y293MRQwEgYDVQQKDAtJVC1Xb3Jrc2hvcDEUMBIGA1UECwwLRGV2ZWxvcG1lbnQx
GjAYBgNVBAMMEXN0Lml0LXdvcmtzaG9wLnJ1MB4XDTI1MTEwMzEyNTc0N1oXDTM1
MTEwMTEyNTc0N1owdzELMAkGA1UEBhMCUlUxDzANBgNVBAgMBk1vc2NvdzEPMA0G
A1UEBwwGTW9zY293MRQwEgYDVQQKDAtJVC1Xb3Jrc2hvcDEUMBIGA1UECwwLRGV2
ZWxvcG1lbnQxGjAYBgNVBAMMEXN0Lml0LXdvcmtzaG9wLnJ1MIIBIjANBgkqhkiG
9w0BAQEFAAOCAQ8AMIIBCgKCAQEArtxlPj4N1bg9U/E+7zIM6d/4jpC2WnspTiRq
U77QiF33+831zQs6FM487fqB2xFj3hPEYHHSNugvHpi/nqNuccpeXqfUqPzFfNdC
UDd9+3xwcwFCHRo5qGnHSp9DUvRmu5dEDiL5b3BPS+expBHWE7nBfHEeg/qpaoJq
L+kFLwwEyZSTsoXs/OqA4F272lWNHog2V9EH0p6jana2cJYATiiPg3nFTwICGJrd
E5CQhPat7O1TLeWkiyqNRD/f8XcB39wiBIlr5tlJ31ctlK8x6qBs3HiFkqrb2DFp
oU7GLWa8JKWJRSSX53KvG5OpvjapGQZb4ECgoaXu5RYj8ekJyQIDAQABo3wwejAO
BgNVHQ8BAf8EBAMCBaAwEwYDVR0lBAwwCgYIKwYBBQUHAwEwNAYDVR0RBC0wK4Ip
c3QuaXQtd29ya3Nob3AucnUKSVAuMSA9IDEwOS4xNzIuMTE1LjIwNAowHQYDVR0O
BBYEFL5T1ZpFYgDo4emG7+iyX6OKFwmJMA0GCSqGSIb3DQEBCwUAA4IBAQA3bmh5
JIa9tD7EEUbT0HWd37PCUr1ntAITgW1pwm8Pdyc7R0+7wp2hF3Ayy+/7Z/OUousL
907X87uEoJmb3AMsi0MVBpkVbiibwait10g3qpHTl3FHNRHZ/zGGYBsVfd5qH1oJ
9k/LP4b3vDR+jSfoWtPVINYlVT9s4pL1RvWLAkDeNMiQqlaOGWs9R8sFsqiCLmPj
orUTrzWAYXYjt70g/mPwIm40eYdO4BUulyhYiUMUX0i2zpReZlTFHDdBFrXnVOG+
gncnEM/5bPMuv8SVxPGSruBe52l/T5AYEtnj0QIoG4M9b57H/5a5ui/3c8XGTFTq
h6Fb6lzu9AVVKbjt
-----END CERTIFICATE-----
