Certificate:
    Data:
        Version: 3 (0x2)
        Serial Number:
            65:07:bc:b2:14:89:57:2a:2b:79:35:ae:55:a5:e0:1a:7c:57:6d:4a
        Signature Algorithm: sha256WithRSAEncryption
        Issuer: C = RU, ST = Moscow, L = Moscow, O = IT-Workshop, OU = Development, CN = st.it-workshop.ru
        Validity
            Not Before: Oct 22 04:36:17 2025 GMT
            Not After : Oct 20 04:36:17 2035 GMT
        Subject: C = RU, ST = Moscow, L = Moscow, O = IT-Workshop, OU = Development, CN = st.it-workshop.ru
        Subject Public Key Info:
            Public Key Algorithm: rsaEncryption
                Public-Key: (2048 bit)
                Modulus:
                    00:bd:24:34:a7:2d:cf:e3:19:68:2f:47:e7:d0:0f:
                    d6:3b:f3:c9:4c:57:e5:3b:2f:6f:10:55:06:5f:86:
                    39:01:e4:b5:d7:5a:f3:5f:37:28:4d:87:4d:06:42:
                    32:b9:f5:89:76:25:57:5f:19:8c:b9:ae:09:7a:58:
                    9d:55:5d:ce:5c:51:83:73:b3:8a:64:f6:5a:d9:13:
                    02:6f:6f:45:b2:55:d0:e7:43:1d:ae:18:79:0d:55:
                    d5:1b:13:9b:e7:ac:63:4d:a8:a3:3c:13:3a:d6:9f:
                    1b:b8:0c:89:bf:44:27:58:c9:01:80:a9:c2:09:4d:
                    59:df:02:77:d2:3d:b2:f2:ca:52:ac:3c:82:9c:2f:
                    78:2a:61:b9:6e:a1:fe:68:ac:19:fe:d4:64:81:d6:
                    32:1c:33:0a:c1:c5:aa:d5:be:a1:15:07:4a:20:6d:
                    ef:f3:55:3f:9c:3a:62:1b:7a:66:0e:ad:c7:13:0f:
                    5d:8b:cd:ab:a1:14:cd:b3:23:20:6d:c7:ce:bf:42:
                    ae:4d:6c:f3:59:31:85:3d:04:0e:66:45:c1:db:82:
                    a3:c6:a4:e2:b7:18:6b:86:26:74:72:97:bd:d4:67:
                    a4:e9:1c:cf:9f:b6:f0:70:77:8b:03:63:90:c9:21:
                    3b:a3:d7:40:9f:a9:0a:da:7d:1c:3c:96:53:a0:ff:
                    54:25
                Exponent: 65537 (0x10001)
        X509v3 extensions:
            X509v3 Key Usage: critical
                Digital Signature, Key Encipherment
            X509v3 Extended Key Usage: 
                TLS Web Server Authentication
            X509v3 Subject Alternative Name: 
                DNS:st.it-workshop.ru, IP Address:109.172.115.204
            X509v3 Subject Key Identifier: 
                1F:D7:35:30:0D:F8:A9:F6:10:9B:0A:D9:11:65:61:C4:78:67:42:70
    Signature Algorithm: sha256WithRSAEncryption
    Signature Value:
        5f:f3:a9:2d:b4:8c:4e:a8:4a:0b:b8:8b:d6:6b:8f:e4:0d:ca:
        ee:63:06:2b:7d:e1:53:f2:ae:85:5a:0c:68:6b:d9:46:c5:31:
        26:94:6d:12:84:b5:a7:91:e4:25:49:df:e5:9f:ea:6d:ac:cb:
        0a:cc:28:f0:fb:70:15:ec:27:4d:ce:99:c5:8c:6f:60:47:bd:
        06:83:b0:6c:70:55:21:20:a2:c1:44:1d:a2:20:c8:a3:22:24:
        2a:4d:93:af:32:1e:dd:23:62:6a:75:fb:26:01:7a:93:1b:72:
        f9:76:39:f7:bc:22:9a:14:1e:c9:36:de:24:fb:1d:be:d8:a7:
        80:45:86:e6:c3:4f:7e:af:eb:a9:8a:e2:5e:34:c9:15:81:f6:
        d8:e3:a3:32:0f:63:e1:9b:fb:42:88:ac:b1:80:a5:7b:b1:d3:
        60:8a:b9:b3:79:c8:82:0d:1f:51:46:38:c8:0a:cc:10:99:ea:
        da:d8:b2:ff:99:86:1f:ad:79:0e:bc:d5:77:9b:c9:08:9f:ae:
        10:14:93:14:5f:6c:1a:04:22:12:37:9e:35:2b:bd:15:a5:37:
        65:c8:e4:86:77:db:a5:05:03:ad:20:a2:64:37:41:6a:fc:8c:
        56:e5:6e:82:13:79:16:dc:ac:d6:21:f1:ab:5a:7c:5c:4b:41:
        a9:fb:99:e4
-----BEGIN CERTIFICATE-----
MIID5jCCAs6gAwIBAgIUZQe8shSJVyoreTWuVaXgGnxXbUowDQYJKoZIhvcNAQEL
BQAwdzELMAkGA1UEBhMCUlUxDzANBgNVBAgMBk1vc2NvdzEPMA0GA1UEBwwGTW9z
Y293MRQwEgYDVQQKDAtJVC1Xb3Jrc2hvcDEUMBIGA1UECwwLRGV2ZWxvcG1lbnQx
GjAYBgNVBAMMEXN0Lml0LXdvcmtzaG9wLnJ1MB4XDTI1MTAyMjA0MzYxN1oXDTM1
MTAyMDA0MzYxN1owdzELMAkGA1UEBhMCUlUxDzANBgNVBAgMBk1vc2NvdzEPMA0G
A1UEBwwGTW9zY293MRQwEgYDVQQKDAtJVC1Xb3Jrc2hvcDEUMBIGA1UECwwLRGV2
ZWxvcG1lbnQxGjAYBgNVBAMMEXN0Lml0LXdvcmtzaG9wLnJ1MIIBIjANBgkqhkiG
9w0BAQEFAAOCAQ8AMIIBCgKCAQEAvSQ0py3P4xloL0fn0A/WO/PJTFflOy9vEFUG
X4Y5AeS111rzXzcoTYdNBkIyufWJdiVXXxmMua4JelidVV3OXFGDc7OKZPZa2RMC
b29FslXQ50Mdrhh5DVXVGxOb56xjTaijPBM61p8buAyJv0QnWMkBgKnCCU1Z3wJ3
0j2y8spSrDyCnC94KmG5bqH+aKwZ/tRkgdYyHDMKwcWq1b6hFQdKIG3v81U/nDpi
G3pmDq3HEw9di82roRTNsyMgbcfOv0KuTWzzWTGFPQQOZkXB24KjxqTitxhrhiZ0
cpe91Gek6RzPn7bwcHeLA2OQySE7o9dAn6kK2n0cPJZToP9UJQIDAQABo2owaDAO
BgNVHQ8BAf8EBAMCBaAwEwYDVR0lBAwwCgYIKwYBBQUHAwEwIgYDVR0RBBswGYIR
c3QuaXQtd29ya3Nob3AucnWHBG2sc8wwHQYDVR0OBBYEFB/XNTAN+Kn2EJsK2RFl
YcR4Z0JwMA0GCSqGSIb3DQEBCwUAA4IBAQBf86kttIxOqEoLuIvWa4/kDcruYwYr
feFT8q6FWgxoa9lGxTEmlG0ShLWnkeQlSd/ln+ptrMsKzCjw+3AV7CdNzpnFjG9g
R70Gg7BscFUhIKLBRB2iIMijIiQqTZOvMh7dI2JqdfsmAXqTG3L5djn3vCKaFB7J
Nt4k+x2+2KeARYbmw09+r+upiuJeNMkVgfbY46MyD2Phm/tCiKyxgKV7sdNgirmz
eciCDR9RRjjICswQmera2LL/mYYfrXkOvNV3m8kIn64QFJMUX2waBCISN541K70V
pTdlyOSGd9ulBQOtIKJkN0Fq/IxW5W6CE3kW3KzWIfGrWnxcS0Gp+5nk
-----END CERTIFICATE-----
